target datalayout = "e-m:e-p270:32:32-p271:32:32-p272:64:64-i64:64-i128:128-f80:128-n8:16:32:64-S128"
target triple = "x86_64-pc-linux-gnu"

@H5HF_init_g = external global i8, align 1
@H5_libterm_g = external global i8, align 1
@.str.4 = private unnamed_addr constant [103 x i8] c"generated/home/dtcxzyw/WorkSpace/Projects/compilers/llvm-opt-benchmark/bench/hdf5/hdf5/src/H5HFcache.c\00", align 1
@H5E_HEAP_g = external global i64, align 8
@H5E_CANTFREE_g = external global i64, align 8
@.str.27 = private unnamed_addr constant [46 x i8] c"unable to destroy fractal heap indirect block\00", align 1
@__func__.H5HF__cache_iblock_free_icr = private unnamed_addr constant [28 x i8] c"H5HF__cache_iblock_free_icr\00", align 1

; Function Attrs: nounwind uwtable
define internal i32 @H5HF__cache_iblock_free_icr(ptr noundef %0) #0 {
  %2 = alloca ptr, align 8
  %3 = alloca ptr, align 8
  %4 = alloca i32, align 4
  %5 = alloca i8, align 1
  store ptr %0, ptr %2, align 8, !tbaa !3
  call void @llvm.lifetime.start.p0(i64 8, ptr %3) #8
  %6 = load ptr, ptr %2, align 8, !tbaa !3
  store ptr %6, ptr %3, align 8, !tbaa !119
  call void @llvm.lifetime.start.p0(i64 4, ptr %4) #8
  store i32 0, ptr %4, align 4, !tbaa !43
  call void @llvm.lifetime.start.p0(i64 1, ptr %5) #8
  store i8 0, ptr %5, align 1, !tbaa !11
  %7 = load i8, ptr @H5HF_init_g, align 1, !tbaa !11, !range !13, !noundef !14
  %8 = trunc i8 %7 to i1
  br i1 %8, label %13, label %9

9:                                                ; preds = %1
  %10 = load i8, ptr @H5_libterm_g, align 1, !tbaa !11, !range !13, !noundef !14
  %11 = trunc i8 %10 to i1
  %12 = xor i1 %11, true
  br label %13

13:                                               ; preds = %9, %1
  %14 = phi i1 [ true, %1 ], [ %12, %9 ]
  %15 = xor i1 %14, true
  %16 = xor i1 %15, true
  %17 = zext i1 %16 to i32
  %18 = sext i32 %17 to i64
  %19 = call i64 @llvm.expect.i64(i64 %18, i64 1)
  %20 = icmp ne i64 %19, 0
  br i1 %20, label %21, label %46

21:                                               ; preds = %13
  %22 = load ptr, ptr %3, align 8, !tbaa !119
  %23 = call i32 @H5HF__man_iblock_dest(ptr noundef %22)
  %24 = icmp slt i32 %23, 0
  br i1 %24, label %25, label %44

25:                                               ; preds = %21
  br label %26

26:                                               ; preds = %25
  br label %27

27:                                               ; preds = %26
  br label %28

28:                                               ; preds = %27
  %29 = load i64, ptr @H5E_HEAP_g, align 8, !tbaa !40
  %30 = load i64, ptr @H5E_CANTFREE_g, align 8, !tbaa !40
  %31 = call i32 (ptr, ptr, i32, i64, i64, ptr, ...) @H5E_printf_stack(ptr noundef @.str.4, ptr noundef @__func__.H5HF__cache_iblock_free_icr, i32 noundef 1469, i64 noundef %29, i64 noundef %30, ptr noundef @.str.27)
  br label %32

32:                                               ; preds = %28
  br label %33

33:                                               ; preds = %32
  store i8 1, ptr %5, align 1, !tbaa !11
  %34 = load i8, ptr %5, align 1, !tbaa !11, !range !13, !noundef !14
  %35 = trunc i8 %34 to i1
  %36 = zext i1 %35 to i8
  store i8 %36, ptr %5, align 1, !tbaa !11
  br label %37

37:                                               ; preds = %33
  br label %38

38:                                               ; preds = %37
  br label %39

39:                                               ; preds = %38
  store i32 -1, ptr %4, align 4, !tbaa !43
  br label %45

40:                                               ; No predecessors!
  br label %41

41:                                               ; preds = %40
  br label %42

42:                                               ; preds = %41
  br label %43

43:                                               ; preds = %42
  br label %44

44:                                               ; preds = %43, %21
  br label %45

45:                                               ; preds = %44, %39
  br label %46

46:                                               ; preds = %45, %13
  %47 = load i32, ptr %4, align 4, !tbaa !43
  call void @llvm.lifetime.end.p0(i64 1, ptr %5) #8
  call void @llvm.lifetime.end.p0(i64 4, ptr %4) #8
  call void @llvm.lifetime.end.p0(i64 8, ptr %3) #8
  ret i32 %47
}